target datalayout = "e-m:e-p270:32:32-p271:32:32-p272:64:64-i64:64-i128:128-f80:128-n8:16:32:64-S128"
target triple = "x86_64-pc-linux-gnu"

%struct.nghttp2_frame_hd = type { i64, i32, i8, i8, i8 }
%struct.nghttp2_goaway = type { %struct.nghttp2_frame_hd, i32, i32, ptr, i64, i8 }

; Function Attrs: nounwind uwtable
define hidden void @nghttp2_frame_unpack_goaway_payload(ptr noundef %0, ptr noundef %1, ptr noundef %2, i64 noundef %3) #0 {
  %5 = alloca ptr, align 8
  %6 = alloca ptr, align 8
  %7 = alloca ptr, align 8
  %8 = alloca i64, align 8
  store ptr %0, ptr %5, align 8, !tbaa !8
  store ptr %1, ptr %6, align 8, !tbaa !3
  store ptr %2, ptr %7, align 8, !tbaa !3
  store i64 %3, ptr %8, align 8, !tbaa !18
  %9 = load ptr, ptr %6, align 8, !tbaa !3
  %10 = call i32 @nghttp2_get_uint32(ptr noundef %9)
  %11 = and i32 %10, 2147483647
  %12 = load ptr, ptr %5, align 8, !tbaa !8
  %13 = getelementptr inbounds nuw %struct.nghttp2_goaway, ptr %12, i32 0, i32 1
  store i32 %11, ptr %13, align 8, !tbaa !38
  %14 = load ptr, ptr %6, align 8, !tbaa !3
  %15 = getelementptr inbounds i8, ptr %14, i64 4
  %16 = call i32 @nghttp2_get_uint32(ptr noundef %15)
  %17 = load ptr, ptr %5, align 8, !tbaa !8
  %18 = getelementptr inbounds nuw %struct.nghttp2_goaway, ptr %17, i32 0, i32 2
  store i32 %16, ptr %18, align 4, !tbaa !40
  %19 = load ptr, ptr %7, align 8, !tbaa !3
  %20 = load ptr, ptr %5, align 8, !tbaa !8
  %21 = getelementptr inbounds nuw %struct.nghttp2_goaway, ptr %20, i32 0, i32 3
  store ptr %19, ptr %21, align 8, !tbaa !41
  %22 = load i64, ptr %8, align 8, !tbaa !18
  %23 = load ptr, ptr %5, align 8, !tbaa !8
  %24 = getelementptr inbounds nuw %struct.nghttp2_goaway, ptr %23, i32 0, i32 4
  store i64 %22, ptr %24, align 8, !tbaa !42
  ret void
}

; Function Attrs: nounwind uwtable
define hidden i32 @nghttp2_frame_unpack_goaway_payload2(ptr noundef %0, ptr noundef %1, i64 noundef %2, ptr noundef %3) #0 {
  %5 = alloca i32, align 4
  %6 = alloca ptr, align 8
  %7 = alloca ptr, align 8
  %8 = alloca i64, align 8
  %9 = alloca ptr, align 8
  %10 = alloca ptr, align 8
  %11 = alloca i64, align 8
  %12 = alloca i32, align 4
  store ptr %0, ptr %6, align 8, !tbaa !8
  store ptr %1, ptr %7, align 8, !tbaa !3
  store i64 %2, ptr %8, align 8, !tbaa !18
  store ptr %3, ptr %9, align 8, !tbaa !8
  call void @llvm.lifetime.start.p0(i64 8, ptr %10) #7
  call void @llvm.lifetime.start.p0(i64 8, ptr %11) #7
  %13 = load i64, ptr %8, align 8, !tbaa !18
  %14 = icmp ugt i64 %13, 8
  br i1 %14, label %15, label %18

15:                                               ; preds = %4
  %16 = load i64, ptr %8, align 8, !tbaa !18
  %17 = sub i64 %16, 8
  store i64 %17, ptr %11, align 8, !tbaa !18
  br label %19

18:                                               ; preds = %4
  store i64 0, ptr %11, align 8, !tbaa !18
  br label %19

19:                                               ; preds = %18, %15
  %20 = load i64, ptr %11, align 8, !tbaa !18
  %21 = icmp ne i64 %20, 0
  br i1 %21, label %23, label %22

22:                                               ; preds = %19
  store ptr null, ptr %10, align 8, !tbaa !3
  br label %35

23:                                               ; preds = %19
  %24 = load ptr, ptr %9, align 8, !tbaa !8
  %25 = load i64, ptr %11, align 8, !tbaa !18
  %26 = call ptr @nghttp2_mem_malloc(ptr noundef %24, i64 noundef %25)
  store ptr %26, ptr %10, align 8, !tbaa !3
  %27 = load ptr, ptr %10, align 8, !tbaa !3
  %28 = icmp eq ptr %27, null
  br i1 %28, label %29, label %30

29:                                               ; preds = %23
  store i32 -901, ptr %5, align 4
  store i32 1, ptr %12, align 4
  br label %40

30:                                               ; preds = %23
  %31 = load ptr, ptr %10, align 8, !tbaa !3
  %32 = load ptr, ptr %7, align 8, !tbaa !3
  %33 = getelementptr inbounds i8, ptr %32, i64 8
  %34 = load i64, ptr %11, align 8, !tbaa !18
  call void @llvm.memcpy.p0.p0.i64(ptr align 1 %31, ptr align 1 %33, i64 %34, i1 false)
  br label %35

35:                                               ; preds = %30, %22
  %36 = load ptr, ptr %6, align 8, !tbaa !8
  %37 = load ptr, ptr %7, align 8, !tbaa !3
  %38 = load ptr, ptr %10, align 8, !tbaa !3
  %39 = load i64, ptr %11, align 8, !tbaa !18
  call void @nghttp2_frame_unpack_goaway_payload(ptr noundef %36, ptr noundef %37, ptr noundef %38, i64 noundef %39)
  store i32 0, ptr %5, align 4
  store i32 1, ptr %12, align 4
  br label %40

40:                                               ; preds = %35, %29
  call void @llvm.lifetime.end.p0(i64 8, ptr %11) #7
  call void @llvm.lifetime.end.p0(i64 8, ptr %10) #7
  %41 = load i32, ptr %5, align 4
  ret i32 %41
}