; Function Attrs: nounwind uwtable
define hidden range(i32 -901, 1) i32 @nghttp2_frame_unpack_goaway_payload2(ptr noundef writeonly captures(none) %0, ptr noundef %1, i64 noundef %2, ptr noundef %3) local_unnamed_addr #0 {
  %.0 = tail call i64 @llvm.usub.sat.i64(i64 %2, i64 8)
  %.not = icmp ult i64 %2, 9
  br i1 %.not, label %.split, label %12

.split:                                           ; preds = %4
  %5 = tail call i32 @nghttp2_get_uint32(ptr noundef %1) #18
  %6 = and i32 %5, 2147483647
  %7 = getelementptr inbounds nuw i8, ptr %0, i64 16
  store i32 %6, ptr %7, align 8, !tbaa !34
  %8 = getelementptr inbounds nuw i8, ptr %1, i64 4
  %9 = tail call i32 @nghttp2_get_uint32(ptr noundef nonnull %8) #18
  %10 = getelementptr inbounds nuw i8, ptr %0, i64 20
  store i32 %9, ptr %10, align 4, !tbaa !37
  %11 = getelementptr inbounds nuw i8, ptr %0, i64 24
  tail call void @llvm.memset.p0.i64(ptr noundef nonnull align 8 dereferenceable(16) %11, i8 0, i64 16, i1 false)
  br label %24

12:                                               ; preds = %4
  %13 = tail call ptr @nghttp2_mem_malloc(ptr noundef %3, i64 noundef %.0) #18
  %14 = icmp eq ptr %13, null
  br i1 %14, label %24, label %.split16

.split16:                                         ; preds = %12
  %15 = getelementptr inbounds nuw i8, ptr %1, i64 8
  tail call void @llvm.memcpy.p0.p0.i64(ptr nonnull align 1 %13, ptr nonnull align 1 %15, i64 %.0, i1 false)
  %16 = tail call i32 @nghttp2_get_uint32(ptr noundef %1) #18
  %17 = and i32 %16, 2147483647
  %18 = getelementptr inbounds nuw i8, ptr %0, i64 16
  store i32 %17, ptr %18, align 8, !tbaa !34
  %19 = getelementptr inbounds nuw i8, ptr %1, i64 4
  %20 = tail call i32 @nghttp2_get_uint32(ptr noundef nonnull %19) #18
  %21 = getelementptr inbounds nuw i8, ptr %0, i64 20
  store i32 %20, ptr %21, align 4, !tbaa !37
  %22 = getelementptr inbounds nuw i8, ptr %0, i64 24
  store ptr %13, ptr %22, align 8, !tbaa !38
  %23 = getelementptr inbounds nuw i8, ptr %0, i64 32
  store i64 %.0, ptr %23, align 8, !tbaa !39
  br label %24

24:                                               ; preds = %.split, %.split16, %12
  %.014 = phi i32 [ -901, %12 ], [ 0, %.split16 ], [ 0, %.split ]
  ret i32 %.014
}